target datalayout = "e-m:e-p270:32:32-p271:32:32-p272:64:64-i64:64-i128:128-f80:128-n8:16:32:64-S128"
target triple = "x86_64-pc-linux-gnu"

%class.QString = type { ptr }
%"class.vcg::Matrix44" = type { %"struct.std::array" }
%"struct.std::array" = type { [16 x float] }
%class.RichParameter = type { ptr, %class.QString, ptr, %class.QString, %class.QString, i8, i8, %class.QString }

; Function Attrs: mustprogress nounwind uwtable
define linkonce_odr noundef nonnull align 4 dereferenceable(4) ptr @_ZNSt14__array_traitsIfLm16EE6_S_refERA16_Kfm(ptr noundef nonnull align 4 dereferenceable(64) %0, i64 noundef %1) #0 comdat align 2 {
  %3 = alloca ptr, align 8
  %4 = alloca i64, align 8
  store ptr %0, ptr %3, align 8
  store i64 %1, ptr %4, align 8
  %5 = load ptr, ptr %3, align 8
  %6 = load i64, ptr %4, align 8
  %7 = getelementptr inbounds [16 x float], ptr %5, i64 0, i64 %6
  ret ptr %7
}

; Function Attrs: mustprogress nounwind uwtable
define linkonce_odr noundef nonnull align 4 dereferenceable(4) ptr @_ZNKSt5arrayIfLm16EEixEm(ptr noundef nonnull align 4 dereferenceable(64) %0, i64 noundef %1) #0 comdat align 2 {
  %3 = alloca ptr, align 8
  %4 = alloca i64, align 8
  store ptr %0, ptr %3, align 8
  store i64 %1, ptr %4, align 8
  %5 = load ptr, ptr %3, align 8
  %6 = getelementptr inbounds %"struct.std::array", ptr %5, i32 0, i32 0
  %7 = load i64, ptr %4, align 8
  %8 = call noundef nonnull align 4 dereferenceable(4) ptr @_ZNSt14__array_traitsIfLm16EE6_S_refERA16_Kfm(ptr noundef nonnull align 4 dereferenceable(64) %6, i64 noundef %7) #5
  ret ptr %8
}

; Function Attrs: mustprogress nounwind uwtable
define linkonce_odr noundef float @_ZNK3vcg8Matrix44IfE9ElementAtEii(ptr noundef nonnull align 4 dereferenceable(64) %0, i32 noundef %1, i32 noundef %2) #0 comdat align 2 {
  %4 = alloca ptr, align 8
  %5 = alloca i32, align 4
  %6 = alloca i32, align 4
  store ptr %0, ptr %4, align 8
  store i32 %1, ptr %5, align 4
  store i32 %2, ptr %6, align 4
  %7 = load ptr, ptr %4, align 8
  %8 = getelementptr inbounds %"class.vcg::Matrix44", ptr %7, i32 0, i32 0
  %9 = load i32, ptr %5, align 4
  %10 = shl i32 %9, 2
  %11 = load i32, ptr %6, align 4
  %12 = add nsw i32 %10, %11
  %13 = sext i32 %12 to i64
  %14 = call noundef nonnull align 4 dereferenceable(4) ptr @_ZNKSt5arrayIfLm16EEixEm(ptr noundef nonnull align 4 dereferenceable(64) %8, i64 noundef %13) #5
  %15 = load float, ptr %14, align 4
  ret float %15
}

; Function Attrs: mustprogress nounwind uwtable
define linkonce_odr void @_ZN3vcg8Matrix44IfED2Ev(ptr noundef nonnull align 4 dereferenceable(64) %0) unnamed_addr #0 comdat align 2 {
  %2 = alloca ptr, align 8
  store ptr %0, ptr %2, align 8
  ret void
}

; Function Attrs: mustprogress uwtable
define linkonce_odr noundef zeroext i1 @_ZNK3vcg8Matrix44IfEeqERKS1_(ptr noundef nonnull align 4 dereferenceable(64) %0, ptr noundef nonnull align 4 dereferenceable(64) %1) #2 comdat align 2 {
  %3 = alloca i1, align 1
  %4 = alloca ptr, align 8
  %5 = alloca ptr, align 8
  %6 = alloca i32, align 4
  %7 = alloca i32, align 4
  store ptr %0, ptr %4, align 8
  store ptr %1, ptr %5, align 8
  %8 = load ptr, ptr %4, align 8
  store i32 0, ptr %6, align 4
  br label %9

9:                                                ; preds = %31, %2
  %10 = load i32, ptr %6, align 4
  %11 = icmp slt i32 %10, 4
  br i1 %11, label %12, label %34

12:                                               ; preds = %9
  store i32 0, ptr %7, align 4
  br label %13

13:                                               ; preds = %27, %12
  %14 = load i32, ptr %7, align 4
  %15 = icmp slt i32 %14, 4
  br i1 %15, label %16, label %30

16:                                               ; preds = %13
  %17 = load i32, ptr %6, align 4
  %18 = load i32, ptr %7, align 4
  %19 = call noundef float @_ZNK3vcg8Matrix44IfE9ElementAtEii(ptr noundef nonnull align 4 dereferenceable(64) %8, i32 noundef %17, i32 noundef %18)
  %20 = load ptr, ptr %5, align 8
  %21 = load i32, ptr %6, align 4
  %22 = load i32, ptr %7, align 4
  %23 = call noundef float @_ZNK3vcg8Matrix44IfE9ElementAtEii(ptr noundef nonnull align 4 dereferenceable(64) %20, i32 noundef %21, i32 noundef %22)
  %24 = fcmp une float %19, %23
  br i1 %24, label %25, label %26

25:                                               ; preds = %16
  store i1 false, ptr %3, align 1
  br label %35

26:                                               ; preds = %16
  br label %27

27:                                               ; preds = %26
  %28 = load i32, ptr %7, align 4
  %29 = add nsw i32 %28, 1
  store i32 %29, ptr %7, align 4
  br label %13, !llvm.loop !5

30:                                               ; preds = %13
  br label %31

31:                                               ; preds = %30
  %32 = load i32, ptr %6, align 4
  %33 = add nsw i32 %32, 1
  store i32 %33, ptr %6, align 4
  br label %9, !llvm.loop !7

34:                                               ; preds = %9
  store i1 true, ptr %3, align 1
  br label %35

35:                                               ; preds = %34, %25
  %36 = load i1, ptr %3, align 1
  ret i1 %36
}

; Function Attrs: mustprogress uwtable
define noundef zeroext i1 @_ZN12RichMatrix44eqERK13RichParameter(ptr noundef nonnull align 8 dereferenceable(56) %0, ptr noundef nonnull align 8 dereferenceable(56) %1) unnamed_addr #2 align 2 personality ptr @__gxx_personality_v0 {
  %3 = alloca i1, align 1
  %4 = alloca ptr, align 8
  %5 = alloca ptr, align 8
  %6 = alloca %"class.vcg::Matrix44", align 4
  %7 = alloca i1, align 1
  %8 = alloca %"class.vcg::Matrix44", align 4
  %9 = alloca ptr, align 8
  %10 = alloca i32, align 4
  %11 = alloca i1, align 1
  store ptr %0, ptr %4, align 8
  store ptr %1, ptr %5, align 8
  %12 = load ptr, ptr %4, align 8
  %13 = load ptr, ptr %5, align 8
  %14 = call noundef nonnull align 8 dereferenceable(8) ptr @_ZNK13RichParameter5valueEv(ptr noundef nonnull align 8 dereferenceable(56) %13)
  %15 = load ptr, ptr %14, align 8
  %16 = getelementptr inbounds ptr, ptr %15, i64 14
  %17 = load ptr, ptr %16, align 8
  %18 = call noundef zeroext i1 %17(ptr noundef nonnull align 8 dereferenceable(8) %14)
  store i1 false, ptr %7, align 1
  store i1 false, ptr %11, align 1
  br i1 %18, label %19, label %38

19:                                               ; preds = %2
  %20 = getelementptr inbounds %class.RichParameter, ptr %12, i32 0, i32 1
  %21 = load ptr, ptr %5, align 8
  %22 = call noundef nonnull align 8 dereferenceable(8) ptr @_ZNK13RichParameter4nameEv(ptr noundef nonnull align 8 dereferenceable(56) %21)
  %23 = call noundef zeroext i1 @_ZeqRK7QStringS1_(ptr noundef nonnull align 8 dereferenceable(8) %20, ptr noundef nonnull align 8 dereferenceable(8) %22) #5
  br i1 %23, label %24, label %38

24:                                               ; preds = %19
  %25 = call noundef nonnull align 8 dereferenceable(8) ptr @_ZNK13RichParameter5valueEv(ptr noundef nonnull align 8 dereferenceable(56) %12)
  %26 = load ptr, ptr %25, align 8
  %27 = getelementptr inbounds ptr, ptr %26, i64 6
  %28 = load ptr, ptr %27, align 8
  call void %28(ptr dead_on_unwind writable sret(%"class.vcg::Matrix44") align 4 %6, ptr noundef nonnull align 8 dereferenceable(8) %25)
  store i1 true, ptr %7, align 1
  %29 = load ptr, ptr %5, align 8
  %30 = invoke noundef nonnull align 8 dereferenceable(8) ptr @_ZNK13RichParameter5valueEv(ptr noundef nonnull align 8 dereferenceable(56) %29)
          to label %31 unwind label %47

31:                                               ; preds = %24
  %32 = load ptr, ptr %30, align 8
  %33 = getelementptr inbounds ptr, ptr %32, i64 6
  %34 = load ptr, ptr %33, align 8
  invoke void %34(ptr dead_on_unwind writable sret(%"class.vcg::Matrix44") align 4 %8, ptr noundef nonnull align 8 dereferenceable(8) %30)
          to label %35 unwind label %47

35:                                               ; preds = %31
  store i1 true, ptr %11, align 1
  %36 = invoke noundef zeroext i1 @_ZNK3vcg8Matrix44IfEeqERKS1_(ptr noundef nonnull align 4 dereferenceable(64) %6, ptr noundef nonnull align 4 dereferenceable(64) %8)
          to label %37 unwind label %51

37:                                               ; preds = %35
  br label %38

38:                                               ; preds = %37, %19, %2
  %39 = phi i1 [ false, %19 ], [ false, %2 ], [ %36, %37 ]
  store i1 %39, ptr %3, align 1
  %40 = load i1, ptr %11, align 1
  br i1 %40, label %41, label %42

41:                                               ; preds = %38
  call void @_ZN3vcg8Matrix44IfED2Ev(ptr noundef nonnull align 4 dereferenceable(64) %8) #5
  br label %42

42:                                               ; preds = %41, %38
  %43 = load i1, ptr %7, align 1
  br i1 %43, label %44, label %45

44:                                               ; preds = %42
  call void @_ZN3vcg8Matrix44IfED2Ev(ptr noundef nonnull align 4 dereferenceable(64) %6) #5
  br label %45

45:                                               ; preds = %44, %42
  %46 = load i1, ptr %3, align 1
  ret i1 %46

47:                                               ; preds = %31, %24
  %48 = landingpad { ptr, i32 }
          cleanup
  %49 = extractvalue { ptr, i32 } %48, 0
  store ptr %49, ptr %9, align 8
  %50 = extractvalue { ptr, i32 } %48, 1
  store i32 %50, ptr %10, align 4
  br label %58

51:                                               ; preds = %35
  %52 = landingpad { ptr, i32 }
          cleanup
  %53 = extractvalue { ptr, i32 } %52, 0
  store ptr %53, ptr %9, align 8
  %54 = extractvalue { ptr, i32 } %52, 1
  store i32 %54, ptr %10, align 4
  %55 = load i1, ptr %11, align 1
  br i1 %55, label %56, label %57

56:                                               ; preds = %51
  call void @_ZN3vcg8Matrix44IfED2Ev(ptr noundef nonnull align 4 dereferenceable(64) %8) #5
  br label %57

57:                                               ; preds = %56, %51
  br label %58

58:                                               ; preds = %57, %47
  %59 = load i1, ptr %7, align 1
  br i1 %59, label %60, label %61

60:                                               ; preds = %58
  call void @_ZN3vcg8Matrix44IfED2Ev(ptr noundef nonnull align 4 dereferenceable(64) %6) #5
  br label %61

61:                                               ; preds = %60, %58
  br label %62

62:                                               ; preds = %61
  %63 = load ptr, ptr %9, align 8
  %64 = load i32, ptr %10, align 4
  %65 = insertvalue { ptr, i32 } poison, ptr %63, 0
  %66 = insertvalue { ptr, i32 } %65, i32 %64, 1
  resume { ptr, i32 } %66
}