; Function Attrs: mustprogress uwtable
define noundef zeroext i1 @_ZN12RichMatrix44eqERK13RichParameter(ptr noundef nonnull align 8 dereferenceable(56) %0, ptr noundef nonnull align 8 dereferenceable(56) %1) unnamed_addr #2 align 2 personality ptr @__gxx_personality_v0 {
  %3 = alloca %"class.vcg::Matrix44", align 4
  %4 = alloca %"class.vcg::Matrix44", align 4
  %5 = tail call noundef nonnull align 8 dereferenceable(8) ptr @_ZNK13RichParameter5valueEv(ptr noundef nonnull align 8 dereferenceable(56) %1)
  %6 = load ptr, ptr %5, align 8
  %7 = getelementptr inbounds i8, ptr %6, i64 112
  %8 = load ptr, ptr %7, align 8
  %9 = tail call noundef zeroext i1 %8(ptr noundef nonnull align 8 dereferenceable(8) %5)
  br i1 %9, label %10, label %.critedge

10:                                               ; preds = %2
  %11 = getelementptr inbounds i8, ptr %0, i64 8
  %12 = tail call noundef nonnull align 8 dereferenceable(8) ptr @_ZNK13RichParameter4nameEv(ptr noundef nonnull align 8 dereferenceable(56) %1)
  %13 = tail call noundef zeroext i1 @_ZeqRK7QStringS1_(ptr noundef nonnull align 8 dereferenceable(8) %11, ptr noundef nonnull align 8 dereferenceable(8) %12) #8
  br i1 %13, label %14, label %.critedge

14:                                               ; preds = %10
  %15 = tail call noundef nonnull align 8 dereferenceable(8) ptr @_ZNK13RichParameter5valueEv(ptr noundef nonnull align 8 dereferenceable(56) %0)
  %16 = load ptr, ptr %15, align 8
  %17 = getelementptr inbounds i8, ptr %16, i64 48
  %18 = load ptr, ptr %17, align 8
  call void %18(ptr dead_on_unwind nonnull writable sret(%"class.vcg::Matrix44") align 4 %3, ptr noundef nonnull align 8 dereferenceable(8) %15)
  %19 = call noundef nonnull align 8 dereferenceable(8) ptr @_ZNK13RichParameter5valueEv(ptr noundef nonnull align 8 dereferenceable(56) %1)
  %20 = load ptr, ptr %19, align 8
  %21 = getelementptr inbounds i8, ptr %20, i64 48
  %22 = load ptr, ptr %21, align 8
  call void %22(ptr dead_on_unwind nonnull writable sret(%"class.vcg::Matrix44") align 4 %4, ptr noundef nonnull align 8 dereferenceable(8) %19)
  br label %.preheader.i

.preheader.i:                                     ; preds = %14, %33
  %indvars.iv20.i = phi i64 [ %indvars.iv.next21.i, %33 ], [ 0, %14 ]
  %23 = phi i1 [ %34, %33 ], [ false, %14 ]
  %24 = shl nuw nsw i64 %indvars.iv20.i, 2
  br label %26

25:                                               ; preds = %26
  %indvars.iv.next.i = add nuw nsw i64 %indvars.iv.i, 1
  %exitcond.not.i = icmp eq i64 %indvars.iv.next.i, 4
  br i1 %exitcond.not.i, label %33, label %26, !llvm.loop !5

26:                                               ; preds = %25, %.preheader.i
  %indvars.iv.i = phi i64 [ 0, %.preheader.i ], [ %indvars.iv.next.i, %25 ]
  %27 = add nuw nsw i64 %indvars.iv.i, %24
  %28 = getelementptr inbounds [16 x float], ptr %3, i64 0, i64 %27
  %29 = load float, ptr %28, align 4
  %30 = getelementptr inbounds [16 x float], ptr %4, i64 0, i64 %27
  %31 = load float, ptr %30, align 4
  %32 = fcmp une float %29, %31
  br i1 %32, label %.critedge, label %25

33:                                               ; preds = %25
  %indvars.iv.next21.i = add nuw nsw i64 %indvars.iv20.i, 1
  %34 = icmp ugt i64 %indvars.iv20.i, 2
  %exitcond22.i = icmp eq i64 %indvars.iv.next21.i, 4
  br i1 %exitcond22.i, label %.critedge, label %.preheader.i, !llvm.loop !7

.critedge:                                        ; preds = %33, %26, %2, %10
  %35 = phi i1 [ false, %10 ], [ false, %2 ], [ %23, %26 ], [ %34, %33 ]
  ret i1 %35
}